; Function Attrs: nounwind uwtable
define ptr @l_Lean_Meta_SynthInstance_addAnswer(ptr noundef %0, ptr noundef %1, ptr noundef %2, ptr noundef %3, ptr noundef %4, ptr noundef %5, ptr noundef %6, ptr noundef %7) local_unnamed_addr #1 {
  %9 = getelementptr inbounds nuw i8, ptr %0, i64 24
  %10 = load ptr, ptr %9, align 8, !tbaa !9
  %11 = ptrtoint ptr %10 to i64
  %12 = and i64 %11, 1
  %.not = icmp eq i64 %12, 0
  br i1 %.not, label %13, label %lean_inc.exit

13:                                               ; preds = %8
  %.val.i = load i32, ptr %10, align 4, !tbaa !4
  %14 = icmp sgt i32 %.val.i, 0
  br i1 %14, label %15, label %17, !prof !11

15:                                               ; preds = %13
  %16 = add nuw i32 %.val.i, 1
  store i32 %16, ptr %10, align 4, !tbaa !4
  br label %lean_inc.exit

17:                                               ; preds = %13
  %.not.i = icmp eq i32 %.val.i, 0
  br i1 %.not.i, label %lean_inc.exit, label %18

18:                                               ; preds = %17
  tail call void @lean_inc_ref_cold(ptr noundef nonnull %10) #7
  br label %lean_inc.exit

lean_inc.exit:                                    ; preds = %18, %17, %15, %8
  tail call void @lean_inc_heartbeat() #7
  %19 = tail call noalias ptr @mi_malloc_small(i64 noundef 32) #7
  %20 = icmp eq ptr %19, null
  br i1 %20, label %21, label %lean_alloc_closure.exit

21:                                               ; preds = %lean_inc.exit
  tail call void @lean_internal_panic_out_of_memory() #8
  unreachable

lean_alloc_closure.exit:                          ; preds = %lean_inc.exit
  %22 = getelementptr inbounds nuw i8, ptr %19, i64 4
  store i32 1, ptr %19, align 4, !tbaa !4
  store i32 -184549344, ptr %22, align 4
  %23 = getelementptr inbounds nuw i8, ptr %19, i64 8
  store ptr @l_Lean_Meta_SynthInstance_addAnswer___lambda__4___boxed, ptr %23, align 8, !tbaa !9
  %24 = getelementptr inbounds nuw i8, ptr %19, i64 16
  store i16 9, ptr %24, align 8, !tbaa !15
  %25 = getelementptr inbounds nuw i8, ptr %19, i64 18
  store i16 1, ptr %25, align 2, !tbaa !15
  %26 = getelementptr inbounds nuw i8, ptr %19, i64 24
  store ptr %0, ptr %26, align 8, !tbaa !9
  %27 = load ptr, ptr @l_Lean_Meta_SynthInstance_addAnswer___closed__1, align 8, !tbaa !9
  tail call void @lean_inc_heartbeat() #7
  %28 = tail call noalias ptr @mi_malloc_small(i64 noundef 40) #7
  %29 = icmp eq ptr %28, null
  br i1 %29, label %30, label %lean_alloc_closure.exit18

30:                                               ; preds = %lean_alloc_closure.exit
  tail call void @lean_internal_panic_out_of_memory() #8
  unreachable

lean_alloc_closure.exit18:                        ; preds = %lean_alloc_closure.exit
  %31 = getelementptr inbounds nuw i8, ptr %28, i64 4
  store i32 1, ptr %28, align 4, !tbaa !4
  store i32 -184549336, ptr %31, align 4
  %32 = getelementptr inbounds nuw i8, ptr %28, i64 8
  store ptr @l_ReaderT_bind___at_Lean_Meta_SynthInstance_newSubgoal___spec__6___rarg, ptr %32, align 8, !tbaa !9
  %33 = getelementptr inbounds nuw i8, ptr %28, i64 16
  store i16 9, ptr %33, align 8, !tbaa !15
  %34 = getelementptr inbounds nuw i8, ptr %28, i64 18
  store i16 2, ptr %34, align 2, !tbaa !15
  %35 = getelementptr inbounds nuw i8, ptr %28, i64 24
  store ptr %27, ptr %35, align 8, !tbaa !9
  %36 = getelementptr inbounds nuw i8, ptr %28, i64 32
  store ptr %19, ptr %36, align 8, !tbaa !9
  %37 = tail call ptr @l_Lean_Meta_withMCtx___at_Lean_Meta_SynthInstance_newSubgoal___spec__13___rarg(ptr noundef %10, ptr noundef nonnull %28, ptr noundef %1, ptr noundef %2, ptr noundef %3, ptr noundef %4, ptr noundef %5, ptr noundef %6, ptr noundef %7)
  ret ptr %37
}